; ModuleID = 'probe1.eb3dc5d3-cgu.0'
source_filename = "probe1.eb3dc5d3-cgu.0"
target datalayout = "e-m:e-p270:32:32-p271:32:32-p272:64:64-i64:64-f80:128-n8:16:32:64-S128"
target triple = "x86_64-unknown-linux-gnu"

%"core::iter::adapters::rev::Rev<core::iter::adapters::step_by::StepBy<core::ops::range::Range<i32>>>" = type { %"core::iter::adapters::step_by::StepBy<core::ops::range::Range<i32>>" }
%"core::iter::adapters::step_by::StepBy<core::ops::range::Range<i32>>" = type { { i32, i32 }, i64, i8, [7 x i8] }

@alloc_4aead6e2018a46d0df208d5729447de7 = private unnamed_addr constant <{ [27 x i8] }> <{ [27 x i8] c"assertion failed: step != 0" }>, align 1
@alloc_88ddc49d056eef0681d9b5fa6efaeecd = private unnamed_addr constant <{ [92 x i8] }> <{ [92 x i8] c"/build/rustc-wAuwbs/rustc-1.70.0+dfsg0ubuntu1~bpo2/library/core/src/iter/adapters/step_by.rs" }>, align 1
@alloc_6227c529664f6af9b67fe49fc1b875a8 = private unnamed_addr constant <{ ptr, [16 x i8] }> <{ ptr @alloc_88ddc49d056eef0681d9b5fa6efaeecd, [16 x i8] c"\\\00\00\00\00\00\00\00\15\00\00\00\09\00\00\00" }>, align 8

; core::iter::traits::iterator::Iterator::rev
; Function Attrs: inlinehint nonlazybind uwtable
define void @_ZN4core4iter6traits8iterator8Iterator3rev17h69fed5263b7e5ec3E(ptr sret(%"core::iter::adapters::rev::Rev<core::iter::adapters::step_by::StepBy<core::ops::range::Range<i32>>>") %0, ptr %self) unnamed_addr #0 {
start:
; call core::iter::adapters::rev::Rev<T>::new
  call void @"_ZN4core4iter8adapters3rev12Rev$LT$T$GT$3new17h117c0a1f06ad387eE"(ptr sret(%"core::iter::adapters::rev::Rev<core::iter::adapters::step_by::StepBy<core::ops::range::Range<i32>>>") %0, ptr %self)
  ret void
}

; core::iter::traits::iterator::Iterator::step_by
; Function Attrs: inlinehint nonlazybind uwtable
define void @_ZN4core4iter6traits8iterator8Iterator7step_by17hb73e2a487e18463dE(ptr sret(%"core::iter::adapters::step_by::StepBy<core::ops::range::Range<i32>>") %0, i32 %self.0, i32 %self.1, i64 %step) unnamed_addr #0 {
start:
; call core::iter::adapters::step_by::StepBy<I>::new
  call void @"_ZN4core4iter8adapters7step_by15StepBy$LT$I$GT$3new17h1d04351c74bf4838E"(ptr sret(%"core::iter::adapters::step_by::StepBy<core::ops::range::Range<i32>>") %0, i32 %self.0, i32 %self.1, i64 %step)
  ret void
}

; core::iter::adapters::rev::Rev<T>::new
; Function Attrs: nonlazybind uwtable
define void @"_ZN4core4iter8adapters3rev12Rev$LT$T$GT$3new17h117c0a1f06ad387eE"(ptr sret(%"core::iter::adapters::rev::Rev<core::iter::adapters::step_by::StepBy<core::ops::range::Range<i32>>>") %0, ptr %iter) unnamed_addr #1 {
start:
  call void @llvm.memcpy.p0.p0.i64(ptr align 8 %0, ptr align 8 %iter, i64 24, i1 false)
  ret void
}

; core::iter::adapters::step_by::StepBy<I>::new
; Function Attrs: nonlazybind uwtable
define void @"_ZN4core4iter8adapters7step_by15StepBy$LT$I$GT$3new17h1d04351c74bf4838E"(ptr sret(%"core::iter::adapters::step_by::StepBy<core::ops::range::Range<i32>>") %0, i32 %iter.0, i32 %iter.1, i64 %step) unnamed_addr #1 personality ptr @rust_eh_personality {
start:
  %1 = alloca { ptr, i32 }, align 8
  %_4 = icmp ne i64 %step, 0
  %_3 = xor i1 %_4, true
  br i1 %_3, label %bb1, label %bb2

bb2:                                              ; preds = %start
  %_7 = sub i64 %step, 1
  %2 = getelementptr inbounds { i32, i32 }, ptr %0, i32 0, i32 0
  store i32 %iter.0, ptr %2, align 8
  %3 = getelementptr inbounds { i32, i32 }, ptr %0, i32 0, i32 1
  store i32 %iter.1, ptr %3, align 4
  %4 = getelementptr inbounds %"core::iter::adapters::step_by::StepBy<core::ops::range::Range<i32>>", ptr %0, i32 0, i32 1
  store i64 %_7, ptr %4, align 8
  %5 = getelementptr inbounds %"core::iter::adapters::step_by::StepBy<core::ops::range::Range<i32>>", ptr %0, i32 0, i32 2
  store i8 1, ptr %5, align 8
  ret void

bb1:                                              ; preds = %start
; invoke core::panicking::panic
  invoke void @_ZN4core9panicking5panic17hd3becb37bf39c010E(ptr align 1 @alloc_4aead6e2018a46d0df208d5729447de7, i64 27, ptr align 8 @alloc_6227c529664f6af9b67fe49fc1b875a8) #4
          to label %unreachable unwind label %cleanup

bb3:                                              ; preds = %cleanup
  %6 = load ptr, ptr %1, align 8, !noundef !2
  %7 = getelementptr inbounds { ptr, i32 }, ptr %1, i32 0, i32 1
  %8 = load i32, ptr %7, align 8, !noundef !2
  %9 = insertvalue { ptr, i32 } poison, ptr %6, 0
  %10 = insertvalue { ptr, i32 } %9, i32 %8, 1
  resume { ptr, i32 } %10

cleanup:                                          ; preds = %bb1
  %11 = landingpad { ptr, i32 }
          cleanup
  %12 = extractvalue { ptr, i32 } %11, 0
  %13 = extractvalue { ptr, i32 } %11, 1
  %14 = getelementptr inbounds { ptr, i32 }, ptr %1, i32 0, i32 0
  store ptr %12, ptr %14, align 8
  %15 = getelementptr inbounds { ptr, i32 }, ptr %1, i32 0, i32 1
  store i32 %13, ptr %15, align 8
  br label %bb3

unreachable:                                      ; preds = %bb1
  unreachable
}

; probe1::probe
; Function Attrs: nonlazybind uwtable
define void @_ZN6probe15probe17h315107f61bf21136E() unnamed_addr #1 {
start:
  %_3 = alloca { i32, i32 }, align 4
  %_2 = alloca %"core::iter::adapters::step_by::StepBy<core::ops::range::Range<i32>>", align 8
  %_1 = alloca %"core::iter::adapters::rev::Rev<core::iter::adapters::step_by::StepBy<core::ops::range::Range<i32>>>", align 8
  store i32 0, ptr %_3, align 4
  %0 = getelementptr inbounds { i32, i32 }, ptr %_3, i32 0, i32 1
  store i32 10, ptr %0, align 4
  %1 = getelementptr inbounds { i32, i32 }, ptr %_3, i32 0, i32 0
  %2 = load i32, ptr %1, align 4, !noundef !2
  %3 = getelementptr inbounds { i32, i32 }, ptr %_3, i32 0, i32 1
  %4 = load i32, ptr %3, align 4, !noundef !2
; call core::iter::traits::iterator::Iterator::step_by
  call void @_ZN4core4iter6traits8iterator8Iterator7step_by17hb73e2a487e18463dE(ptr sret(%"core::iter::adapters::step_by::StepBy<core::ops::range::Range<i32>>") %_2, i32 %2, i32 %4, i64 2)
; call core::iter::traits::iterator::Iterator::rev
  call void @_ZN4core4iter6traits8iterator8Iterator3rev17h69fed5263b7e5ec3E(ptr sret(%"core::iter::adapters::rev::Rev<core::iter::adapters::step_by::StepBy<core::ops::range::Range<i32>>>") %_1, ptr %_2)
  ret void
}

; Function Attrs: nocallback nofree nounwind willreturn memory(argmem: readwrite)
declare void @llvm.memcpy.p0.p0.i64(ptr noalias nocapture writeonly, ptr noalias nocapture readonly, i64, i1 immarg) #2

; Function Attrs: nonlazybind uwtable
declare i32 @rust_eh_personality(i32, i32, i64, ptr, ptr) unnamed_addr #1

; core::panicking::panic
; Function Attrs: cold noinline noreturn nonlazybind uwtable
declare void @_ZN4core9panicking5panic17hd3becb37bf39c010E(ptr align 1, i64, ptr align 8) unnamed_addr #3

attributes #0 = { inlinehint nonlazybind uwtable "probe-stack"="inline-asm" "target-cpu"="x86-64" }
attributes #1 = { nonlazybind uwtable "probe-stack"="inline-asm" "target-cpu"="x86-64" }
attributes #2 = { nocallback nofree nounwind willreturn memory(argmem: readwrite) }
attributes #3 = { cold noinline noreturn nonlazybind uwtable "probe-stack"="inline-asm" "target-cpu"="x86-64" }
attributes #4 = { noreturn }

!llvm.module.flags = !{!0, !1}

!0 = !{i32 8, !"PIC Level", i32 2}
!1 = !{i32 2, !"RtLibUseGOT", i32 1}
!2 = !{}
